target datalayout = "e-m:e-p270:32:32-p271:32:32-p272:64:64-i64:64-i128:128-f80:128-n8:16:32:64-S128"
target triple = "x86_64-pc-linux-gnu"

%class.ParallelCompactData = type { ptr, ptr, i64, ptr, i64 }
%class.PSVirtualSpace = type <{ ptr, i64, ptr, ptr, ptr, ptr, i8, [7 x i8] }>

; Function Attrs: mustprogress nounwind uwtable
define linkonce_odr hidden noundef ptr @_ZNK14PSVirtualSpace17reserved_low_addrEv(ptr noundef nonnull align 8 dereferenceable(49) %0) #1 comdat align 2 {
  %2 = alloca ptr, align 8
  store ptr %0, ptr %2, align 8
  %3 = load ptr, ptr %2, align 8
  %4 = getelementptr inbounds %class.PSVirtualSpace, ptr %3, i32 0, i32 2
  %5 = load ptr, ptr %4, align 8
  ret ptr %5
}

; Function Attrs: mustprogress nounwind uwtable
define hidden noundef zeroext i1 @_ZN19ParallelCompactData22initialize_region_dataEm(ptr noundef nonnull align 8 dereferenceable(40) %0, i64 noundef %1) #1 align 2 {
  %3 = alloca i1, align 1
  %4 = alloca ptr, align 8
  %5 = alloca i64, align 8
  %6 = alloca i64, align 8
  store ptr %0, ptr %4, align 8
  store i64 %1, ptr %5, align 8
  %7 = load ptr, ptr %4, align 8
  %8 = load i64, ptr %5, align 8
  %9 = lshr i64 %8, 16
  store i64 %9, ptr %6, align 8
  %10 = load i64, ptr %6, align 8
  %11 = call noundef ptr @_ZN19ParallelCompactData13create_vspaceEmm(ptr noundef nonnull align 8 dereferenceable(40) %7, i64 noundef %10, i64 noundef 40)
  %12 = getelementptr inbounds %class.ParallelCompactData, ptr %7, i32 0, i32 1
  store ptr %11, ptr %12, align 8
  %13 = getelementptr inbounds %class.ParallelCompactData, ptr %7, i32 0, i32 1
  %14 = load ptr, ptr %13, align 8
  %15 = icmp ne ptr %14, null
  br i1 %15, label %16, label %23

16:                                               ; preds = %2
  %17 = getelementptr inbounds %class.ParallelCompactData, ptr %7, i32 0, i32 1
  %18 = load ptr, ptr %17, align 8
  %19 = call noundef ptr @_ZNK14PSVirtualSpace17reserved_low_addrEv(ptr noundef nonnull align 8 dereferenceable(49) %18)
  %20 = getelementptr inbounds %class.ParallelCompactData, ptr %7, i32 0, i32 3
  store ptr %19, ptr %20, align 8
  %21 = load i64, ptr %6, align 8
  %22 = getelementptr inbounds %class.ParallelCompactData, ptr %7, i32 0, i32 4
  store i64 %21, ptr %22, align 8
  store i1 true, ptr %3, align 1
  br label %24

23:                                               ; preds = %2
  store i1 false, ptr %3, align 1
  br label %24

24:                                               ; preds = %23, %16
  %25 = load i1, ptr %3, align 1
  ret i1 %25
}