; Function Attrs: mustprogress nounwind uwtable
define hidden noundef zeroext i1 @_ZN19ParallelCompactData22initialize_region_dataEm(ptr nocapture noundef nonnull align 8 dereferenceable(40) %0, i64 noundef %1) local_unnamed_addr #0 align 2 {
  %3 = lshr i64 %1, 16
  %4 = tail call noundef ptr @_ZN19ParallelCompactData13create_vspaceEmm(ptr noundef nonnull align 8 dereferenceable(40) %0, i64 noundef %3, i64 noundef 40)
  %5 = getelementptr inbounds i8, ptr %0, i64 8
  store ptr %4, ptr %5, align 8
  %.not = icmp ne ptr %4, null
  br i1 %.not, label %6, label %11

6:                                                ; preds = %2
  %7 = getelementptr inbounds i8, ptr %4, i64 16
  %8 = load ptr, ptr %7, align 8
  %9 = getelementptr inbounds i8, ptr %0, i64 24
  store ptr %8, ptr %9, align 8
  %10 = getelementptr inbounds i8, ptr %0, i64 32
  store i64 %3, ptr %10, align 8
  br label %11

11:                                               ; preds = %2, %6
  ret i1 %.not
}